; Function Attrs: mustprogress uwtable
define noundef ptr @_ZN6google8protobuf8internal14ArenaStringPtr7ReleaseB5cxx11Ev(ptr noundef nonnull align 8 captures(none) dereferenceable(8) %this) local_unnamed_addr #3 align 2 personality ptr @__gxx_personality_v0 {
entry:
  %0 = load ptr, ptr %this, align 8
  %1 = ptrtoint ptr %0 to i64
  %and.i.i = and i64 %1, 3
  %cmp.i.i = icmp eq i64 %and.i.i, 0
  br i1 %cmp.i.i, label %return, label %if.end

if.end:                                           ; preds = %entry
  %and.i = and i64 %1, -4
  %2 = inttoptr i64 %and.i to ptr
  %and.i3 = and i64 %1, 1
  %tobool.i.not = icmp eq i64 %and.i3, 0
  br i1 %tobool.i.not, label %if.end13, label %if.then6

if.then6:                                         ; preds = %if.end
  %and.i4 = and i64 %1, 2
  %tobool.i5.not = icmp eq i64 %and.i4, 0
  %call10 = tail call noalias noundef nonnull dereferenceable(32) ptr @_Znwm(i64 noundef 32) #11
  br i1 %tobool.i5.not, label %cond.false, label %cond.true

cond.true:                                        ; preds = %if.then6
  tail call void @_ZNSt7__cxx1112basic_stringIcSt11char_traitsIcESaIcEEC1EOS4_(ptr noundef nonnull align 8 dereferenceable(32) %call10, ptr noundef nonnull align 8 dereferenceable(32) %2) #10
  br label %if.end13

cond.false:                                       ; preds = %if.then6
  invoke void @_ZNSt7__cxx1112basic_stringIcSt11char_traitsIcESaIcEEC1ERKS4_(ptr noundef nonnull align 8 dereferenceable(32) %call10, ptr noundef nonnull align 8 dereferenceable(32) %2)
          to label %if.end13 unwind label %lpad

lpad:                                             ; preds = %cond.false
  %3 = landingpad { ptr, i32 }
          cleanup
  tail call void @_ZdlPv(ptr noundef nonnull %call10) #12
  resume { ptr, i32 } %3

if.end13:                                         ; preds = %cond.true, %cond.false, %if.end
  %released.0 = phi ptr [ %2, %if.end ], [ %call10, %cond.true ], [ %call10, %cond.false ]
  store i64 ptrtoint (ptr @_ZN6google8protobuf8internal26fixed_address_empty_stringB5cxx11E to i64), ptr %this, align 8
  br label %return

return:                                           ; preds = %entry, %if.end13
  %retval.0 = phi ptr [ %released.0, %if.end13 ], [ null, %entry ]
  ret ptr %retval.0
}